Certificate:
    Data:
        Version: 3 (0x2)
        Serial Number: 1 (0x1)
    Signature Algorithm: sha256WithRSAEncryption
        Issuer: C=US, ST=CA, L=SanFrancisco, O=Fort-Funston, OU=MyOrganizationalUnit, CN=Fort-Funston CA/name=EasyRSA/emailAddress=me@myhost.mydomain
        Validity
            Not Before: Aug 26 17:07:32 2016 GMT
            Not After : Aug 24 17:07:32 2026 GMT
        Subject: C=US, ST=CA, L=SanFrancisco, O=Fort-Funston, OU=MyOrganizationalUnit, CN=-h/name=EasyRSA/emailAddress=me@myhost.mydomain
        Subject Public Key Info:
            Public Key Algorithm: rsaEncryption
                Public-Key: (2048 bit)
                Modulus:
                    00:b4:af:eb:bb:05:0d:4d:a8:a1:7b:65:79:1f:a2:
                    ad:8b:af:d5:2d:75:92:38:e7:0d:79:68:4a:6a:03:
                    0a:c6:3a:93:fd:e3:9a:e7:f5:18:8f:07:c7:c9:30:
                    aa:db:6c:7e:18:84:09:9c:69:32:5b:55:40:a1:1f:
                    1d:49:f1:cd:12:ec:aa:55:ad:fd:a0:13:60:d4:ed:
                    e6:6b:15:19:2a:a4:d5:a0:06:62:1c:36:f0:69:b5:
                    13:df:5d:5d:8a:90:2e:42:75:94:00:2f:61:d4:ef:
                    08:b7:37:fb:98:4e:b6:b9:4c:3b:cc:f2:05:21:8e:
                    1e:1d:8e:a9:dc:d1:e0:f8:2b:31:8b:db:cf:fd:66:
                    e2:ed:cb:da:b3:3e:e4:92:17:18:c1:31:9f:ae:35:
                    3c:c6:01:1e:35:fe:8c:74:6e:14:43:0b:bb:40:15:
                    32:3d:10:46:c6:f6:54:d8:26:ac:c2:98:ee:a0:66:
                    ed:81:69:3f:b8:2d:2b:f3:fa:3f:0d:6d:c4:9f:8c:
                    4d:82:f1:01:d6:66:1f:73:49:80:cd:73:bd:22:f1:
                    12:51:f1:fe:e6:8f:e0:be:32:99:74:50:3b:dc:8f:
                    ae:74:a0:58:64:b8:b7:40:b3:d5:f0:a8:19:20:cb:
                    7b:86:47:45:96:ae:f4:4a:f3:39:7d:ff:19:8e:50:
                    98:63
                Exponent: 65537 (0x10001)
        X509v3 extensions:
            X509v3 Basic Constraints: 
                CA:FALSE
            Netscape Comment: 
                Easy-RSA Generated Certificate
            X509v3 Subject Key Identifier: 
                B4:F1:77:6A:ED:D2:67:AB:19:75:00:B5:DE:02:04:8C:F4:7E:4B:87
            X509v3 Authority Key Identifier: 
                keyid:E3:2B:E4:74:CF:9B:BC:6E:6D:E6:52:1D:11:04:FC:66:1F:25:4A:73
                DirName:/C=US/ST=CA/L=SanFrancisco/O=Fort-Funston/OU=MyOrganizationalUnit/CN=Fort-Funston CA/name=EasyRSA/emailAddress=me@myhost.mydomain
                serial:F9:2F:C6:8B:0E:F1:EB:9E

            X509v3 Extended Key Usage: 
                TLS Web Client Authentication
            X509v3 Key Usage: 
                Digital Signature
            X509v3 Subject Alternative Name: 
                DNS:-h
    Signature Algorithm: sha256WithRSAEncryption
         0b:b4:40:74:21:70:12:4f:e9:b5:30:d0:2c:64:d9:fc:1a:01:
         ac:9e:79:cf:a7:92:c7:27:c4:d8:55:e7:3f:ec:f6:11:36:07:
         17:44:53:4c:f4:09:78:93:5b:ec:31:3c:08:d8:15:49:00:b6:
         fc:5f:f5:46:d5:4e:d0:7f:a0:c3:9d:6c:43:cf:52:fa:22:cf:
         14:ff:8e:92:68:90:23:22:41:6d:b9:5e:65:c0:81:56:61:63:
         e4:73:33:7d:5d:43:49:9d:bb:d9:48:58:d0:65:f9:e9:bf:90:
         15:30:51:dc:e2:27:c4:5b:4d:e7:46:4c:49:05:3a:f7:9b:dc:
         f3:70:56:b4:69:24:25:92:33:48:eb:fe:07:95:5c:eb:4d:e6:
         45:a3:27:5e:75:59:62:a4:3e:18:66:30:17:58:15:87:f0:63:
         b9:d6:bd:01:e2:a9:a8:de:34:0d:5b:ab:41:8f:7a:f4:5a:c1:
         7c:fa:5c:7d:cf:ab:8a:cb:36:53:12:fc:97:11:c5:b8:d0:a8:
         7d:fc:f2:2f:74:95:c5:c0:62:cc:57:2a:8e:1f:9d:72:90:7e:
         9b:d5:5a:cf:26:ff:3e:3a:cb:80:c7:e7:c6:77:d9:ef:e1:a5:
         42:8f:9e:f7:15:2b:62:9c:8c:6a:35:36:3e:08:71:c6:06:44:
         eb:43:4f:02
-----BEGIN CERTIFICATE-----
MIIFWjCCBEKgAwIBAgIBATANBgkqhkiG9w0BAQsFADCBtjELMAkGA1UEBhMCVVMx
CzAJBgNVBAgTAkNBMRUwEwYDVQQHEwxTYW5GcmFuY2lzY28xFTATBgNVBAoTDEZv
cnQtRnVuc3RvbjEdMBsGA1UECxMUTXlPcmdhbml6YXRpb25hbFVuaXQxGDAWBgNV
BAMTD0ZvcnQtRnVuc3RvbiBDQTEQMA4GA1UEKRMHRWFzeVJTQTEhMB8GCSqGSIb3
DQEJARYSbWVAbXlob3N0Lm15ZG9tYWluMB4XDTE2MDgyNjE3MDczMloXDTI2MDgy
NDE3MDczMlowgakxCzAJBgNVBAYTAlVTMQswCQYDVQQIEwJDQTEVMBMGA1UEBxMM
U2FuRnJhbmNpc2NvMRUwEwYDVQQKEwxGb3J0LUZ1bnN0b24xHTAbBgNVBAsTFE15
T3JnYW5pemF0aW9uYWxVbml0MQswCQYDVQQDEwItaDEQMA4GA1UEKRMHRWFzeVJT
QTEhMB8GCSqGSIb3DQEJARYSbWVAbXlob3N0Lm15ZG9tYWluMIIBIjANBgkqhkiG
9w0BAQEFAAOCAQ8AMIIBCgKCAQEAtK/ruwUNTaihe2V5H6Kti6/VLXWSOOcNeWhK
agMKxjqT/eOa5/UYjwfHyTCq22x+GIQJnGkyW1VAoR8dSfHNEuyqVa39oBNg1O3m
axUZKqTVoAZiHDbwabUT311dipAuQnWUAC9h1O8Itzf7mE62uUw7zPIFIY4eHY6p
3NHg+Csxi9vP/Wbi7cvasz7kkhcYwTGfrjU8xgEeNf6MdG4UQwu7QBUyPRBGxvZU
2CaswpjuoGbtgWk/uC0r8/o/DW3En4xNgvEB1mYfc0mAzXO9IvESUfH+5o/gvjKZ
dFA73I+udKBYZLi3QLPV8KgZIMt7hkdFlq70SvM5ff8ZjlCYYwIDAQABo4IBfDCC
AXgwCQYDVR0TBAIwADAtBglghkgBhvhCAQ0EIBYeRWFzeS1SU0EgR2VuZXJhdGVk
IENlcnRpZmljYXRlMB0GA1UdDgQWBBS08Xdq7dJnqxl1ALXeAgSM9H5LhzCB6wYD
VR0jBIHjMIHggBTjK+R0z5u8bm3mUh0RBPxmHyVKc6GBvKSBuTCBtjELMAkGA1UE
BhMCVVMxCzAJBgNVBAgTAkNBMRUwEwYDVQQHEwxTYW5GcmFuY2lzY28xFTATBgNV
BAoTDEZvcnQtRnVuc3RvbjEdMBsGA1UECxMUTXlPcmdhbml6YXRpb25hbFVuaXQx
GDAWBgNVBAMTD0ZvcnQtRnVuc3RvbiBDQTEQMA4GA1UEKRMHRWFzeVJTQTEhMB8G
CSqGSIb3DQEJARYSbWVAbXlob3N0Lm15ZG9tYWluggkA+S/Giw7x654wEwYDVR0l
BAwwCgYIKwYBBQUHAwIwCwYDVR0PBAQDAgeAMA0GA1UdEQQGMASCAi1oMA0GCSqG
SIb3DQEBCwUAA4IBAQALtEB0IXAST+m1MNAsZNn8GgGsnnnPp5LHJ8TYVec/7PYR
NgcXRFNM9Al4k1vsMTwI2BVJALb8X/VG1U7Qf6DDnWxDz1L6Is8U/46SaJAjIkFt
uV5lwIFWYWPkczN9XUNJnbvZSFjQZfnpv5AVMFHc4ifEW03nRkxJBTr3m9zzcFa0
aSQlkjNI6/4HlVzrTeZFoydedVlipD4YZjAXWBWH8GO51r0B4qmo3jQNW6tBj3r0
WsF8+lx9z6uKyzZTEvyXEcW40Kh9/PIvdJXFwGLMVyqOH51ykH6b1VrPJv8+OsuA
x+fGd9nv4aVCj573FStinIxqNTY+CHHGBkTrQ08C
-----END CERTIFICATE-----
