Certificate:
    Data:
        Version: 3 (0x2)
        Serial Number: 3 (0x3)
    Signature Algorithm: sha256WithRSAEncryption
        Issuer: C=US, ST=CA, L=SanFrancisco, O=Fort-Funston, OU=MyOrganizationalUnit, CN=Fort-Funston CA/name=EasyRSA/emailAddress=me@myhost.mydomain
        Validity
            Not Before: Aug 26 17:08:43 2016 GMT
            Not After : Aug 24 17:08:43 2026 GMT
        Subject: C=US, ST=CA, L=SanFrancisco, O=Fort-Funston, OU=MyOrganizationalUnit, CN=tsa1/name=EasyRSA/emailAddress=me@myhost.mydomain
        Subject Public Key Info:
            Public Key Algorithm: rsaEncryption
                Public-Key: (2048 bit)
                Modulus:
                    00:c8:00:8c:27:a0:52:ac:87:1f:e5:b4:1c:2d:be:
                    af:a0:8b:aa:ea:1b:8d:02:30:41:00:1b:3a:34:dc:
                    6f:04:5d:9f:c5:59:6f:a5:fa:d5:1e:3c:0e:22:52:
                    10:1e:7e:b2:48:b1:65:cd:0c:be:55:60:0e:98:d2:
                    34:8d:e9:9b:50:a2:98:92:6b:6a:09:db:9e:f6:f7:
                    80:22:d1:8b:f3:71:6e:bd:53:b3:fb:23:70:4e:01:
                    20:73:75:12:20:87:37:d3:ca:e5:0b:ff:ba:5e:bd:
                    ad:cd:ff:05:e2:91:31:7c:b1:99:34:ef:d2:6f:1e:
                    22:fe:77:e9:40:ac:8b:dc:f0:e8:23:04:f6:b7:b3:
                    60:34:2c:82:df:3c:3d:ca:14:52:d8:8a:57:1f:40:
                    1b:70:a2:ac:65:df:54:87:ba:7d:85:7b:d8:93:bd:
                    8e:85:fc:de:9a:0b:6a:88:52:b2:27:1b:0c:16:e0:
                    87:ba:7c:c9:94:a3:f7:10:79:88:0e:96:b4:a7:40:
                    76:00:58:b1:5a:ab:50:89:55:f6:f8:48:4f:76:66:
                    e5:1c:fa:bb:7a:59:57:df:33:57:7b:d4:0c:36:7f:
                    d6:6e:0a:40:a2:06:b7:c0:f2:31:f7:55:11:20:74:
                    cf:68:b2:b2:96:74:4c:58:a0:3e:ec:ee:8e:df:d1:
                    51:ff
                Exponent: 65537 (0x10001)
        X509v3 extensions:
            X509v3 Basic Constraints: 
                CA:FALSE
            Netscape Comment: 
                Easy-RSA Generated Certificate
            X509v3 Subject Key Identifier: 
                6D:48:DA:1F:19:A2:88:71:0F:3D:80:5D:AB:44:5C:F5:06:B5:BB:0B
            X509v3 Authority Key Identifier: 
                keyid:E3:2B:E4:74:CF:9B:BC:6E:6D:E6:52:1D:11:04:FC:66:1F:25:4A:73
                DirName:/C=US/ST=CA/L=SanFrancisco/O=Fort-Funston/OU=MyOrganizationalUnit/CN=Fort-Funston CA/name=EasyRSA/emailAddress=me@myhost.mydomain
                serial:F9:2F:C6:8B:0E:F1:EB:9E

            X509v3 Extended Key Usage: 
                TLS Web Client Authentication
            X509v3 Key Usage: 
                Digital Signature
            X509v3 Subject Alternative Name: 
                DNS:tsa1
    Signature Algorithm: sha256WithRSAEncryption
         a2:b6:e1:66:78:ff:d0:f1:53:58:2f:8a:26:0b:c1:7f:71:f8:
         9a:d1:fa:70:f8:5b:b7:ce:da:79:92:52:0b:5f:d1:ed:c1:86:
         eb:bc:29:f7:ed:0f:5b:c4:10:ab:a3:ce:9e:97:c8:a0:c8:5c:
         af:bc:f2:58:77:00:59:69:85:2f:a1:16:92:45:b8:a9:3b:8d:
         8c:bd:1a:bb:08:07:79:6d:6a:e9:8b:7c:fb:fb:0e:72:0a:e1:
         fa:4c:ca:d5:d6:99:fc:2c:5f:1d:8a:28:38:da:bd:d4:88:36:
         a2:a4:1a:e5:f9:77:72:e6:ed:13:62:31:19:79:ec:ad:9e:b5:
         d1:92:7a:cf:f8:e0:ad:56:dd:5b:68:c6:64:c5:32:51:83:0e:
         89:17:14:22:29:53:09:bb:49:06:3a:f1:02:8f:de:fc:94:59:
         82:3d:d1:97:d8:70:53:ff:b5:0d:04:6f:2a:3f:30:50:7b:b1:
         61:b3:a3:10:ee:94:dd:de:b8:ac:7c:0d:a4:af:f6:c2:8a:74:
         dd:e8:95:db:ee:ab:d5:ef:68:0a:96:7c:46:05:93:12:93:d8:
         84:5a:6d:38:ff:69:40:51:84:29:62:91:62:7b:af:17:18:b7:
         bb:59:19:89:89:89:5d:75:54:92:bf:75:2f:7e:e4:fb:eb:a7:
         ae:b5:a2:2f
-----BEGIN CERTIFICATE-----
MIIFXjCCBEagAwIBAgIBAzANBgkqhkiG9w0BAQsFADCBtjELMAkGA1UEBhMCVVMx
CzAJBgNVBAgTAkNBMRUwEwYDVQQHEwxTYW5GcmFuY2lzY28xFTATBgNVBAoTDEZv
cnQtRnVuc3RvbjEdMBsGA1UECxMUTXlPcmdhbml6YXRpb25hbFVuaXQxGDAWBgNV
BAMTD0ZvcnQtRnVuc3RvbiBDQTEQMA4GA1UEKRMHRWFzeVJTQTEhMB8GCSqGSIb3
DQEJARYSbWVAbXlob3N0Lm15ZG9tYWluMB4XDTE2MDgyNjE3MDg0M1oXDTI2MDgy
NDE3MDg0M1owgasxCzAJBgNVBAYTAlVTMQswCQYDVQQIEwJDQTEVMBMGA1UEBxMM
U2FuRnJhbmNpc2NvMRUwEwYDVQQKEwxGb3J0LUZ1bnN0b24xHTAbBgNVBAsTFE15
T3JnYW5pemF0aW9uYWxVbml0MQ0wCwYDVQQDEwR0c2ExMRAwDgYDVQQpEwdFYXN5
UlNBMSEwHwYJKoZIhvcNAQkBFhJtZUBteWhvc3QubXlkb21haW4wggEiMA0GCSqG
SIb3DQEBAQUAA4IBDwAwggEKAoIBAQDIAIwnoFKshx/ltBwtvq+gi6rqG40CMEEA
Gzo03G8EXZ/FWW+l+tUePA4iUhAefrJIsWXNDL5VYA6Y0jSN6ZtQopiSa2oJ2572
94Ai0YvzcW69U7P7I3BOASBzdRIghzfTyuUL/7peva3N/wXikTF8sZk079JvHiL+
d+lArIvc8OgjBPa3s2A0LILfPD3KFFLYilcfQBtwoqxl31SHun2Fe9iTvY6F/N6a
C2qIUrInGwwW4Ie6fMmUo/cQeYgOlrSnQHYAWLFaq1CJVfb4SE92ZuUc+rt6WVff
M1d71Aw2f9ZuCkCiBrfA8jH3VREgdM9osrKWdExYoD7s7o7f0VH/AgMBAAGjggF+
MIIBejAJBgNVHRMEAjAAMC0GCWCGSAGG+EIBDQQgFh5FYXN5LVJTQSBHZW5lcmF0
ZWQgQ2VydGlmaWNhdGUwHQYDVR0OBBYEFG1I2h8ZoohxDz2AXatEXPUGtbsLMIHr
BgNVHSMEgeMwgeCAFOMr5HTPm7xubeZSHREE/GYfJUpzoYG8pIG5MIG2MQswCQYD
VQQGEwJVUzELMAkGA1UECBMCQ0ExFTATBgNVBAcTDFNhbkZyYW5jaXNjbzEVMBMG
A1UEChMMRm9ydC1GdW5zdG9uMR0wGwYDVQQLExRNeU9yZ2FuaXphdGlvbmFsVW5p
dDEYMBYGA1UEAxMPRm9ydC1GdW5zdG9uIENBMRAwDgYDVQQpEwdFYXN5UlNBMSEw
HwYJKoZIhvcNAQkBFhJtZUBteWhvc3QubXlkb21haW6CCQD5L8aLDvHrnjATBgNV
HSUEDDAKBggrBgEFBQcDAjALBgNVHQ8EBAMCB4AwDwYDVR0RBAgwBoIEdHNhMTAN
BgkqhkiG9w0BAQsFAAOCAQEAorbhZnj/0PFTWC+KJgvBf3H4mtH6cPhbt87aeZJS
C1/R7cGG67wp9+0PW8QQq6POnpfIoMhcr7zyWHcAWWmFL6EWkkW4qTuNjL0auwgH
eW1q6Yt8+/sOcgrh+kzK1daZ/CxfHYooONq91Ig2oqQa5fl3cubtE2IxGXnsrZ61
0ZJ6z/jgrVbdW2jGZMUyUYMOiRcUIilTCbtJBjrxAo/e/JRZgj3Rl9hwU/+1DQRv
Kj8wUHuxYbOjEO6U3d64rHwNpK/2wop03eiV2+6r1e9oCpZ8RgWTEpPYhFptOP9p
QFGEKWKRYnuvFxi3u1kZiYmJXXVUkr91L37k++unrrWiLw==
-----END CERTIFICATE-----
