Certificate:
    Data:
        Version: 3 (0x2)
        Serial Number: 5 (0x5)
    Signature Algorithm: sha256WithRSAEncryption
        Issuer: C=US, ST=CA, L=SanFrancisco, O=Fort-Funston, OU=MyOrganizationalUnit, CN=Fort-Funston CA/name=EasyRSA/emailAddress=me@myhost.mydomain
        Validity
            Not Before: Aug 26 17:08:56 2016 GMT
            Not After : Aug 24 17:08:56 2026 GMT
        Subject: C=US, ST=CA, L=SanFrancisco, O=Fort-Funston, OU=MyOrganizationalUnit, CN=clt1/name=EasyRSA/emailAddress=me@myhost.mydomain
        Subject Public Key Info:
            Public Key Algorithm: rsaEncryption
                Public-Key: (2048 bit)
                Modulus:
                    00:d5:f2:1c:23:59:41:87:a7:68:06:7d:2f:5f:aa:
                    88:16:4a:91:59:11:7f:d9:28:d1:ec:d6:c9:bc:b0:
                    6b:90:ee:44:94:44:e7:d4:b9:11:48:f7:f1:ca:9e:
                    f8:ce:02:44:b2:7b:90:3d:e1:97:42:b1:02:fe:ab:
                    1c:2a:89:81:50:81:42:9f:7f:87:41:87:be:b5:bc:
                    c0:9f:33:81:26:81:86:24:a9:4c:72:6c:7f:e9:a8:
                    71:1f:aa:45:4a:38:bd:c8:57:c4:25:8c:47:14:d0:
                    e0:60:4b:07:ee:bb:52:b9:95:d3:66:24:c4:6b:79:
                    36:83:af:6b:b8:01:8f:67:f2:81:7f:3e:fe:c3:4f:
                    72:ac:06:65:43:39:0f:fc:5f:71:bc:5c:12:f6:36:
                    ef:27:61:a0:32:4c:d1:cd:e1:15:e2:64:b5:fd:fd:
                    54:d5:63:45:a1:96:9a:38:50:c5:b7:7e:0e:fb:96:
                    d9:a7:a7:4f:58:58:af:a1:17:50:fa:66:62:43:1e:
                    8a:38:6a:7c:54:3f:8d:5a:12:5c:e3:cc:95:55:25:
                    9b:ee:bc:33:40:3a:54:cb:39:3e:6c:17:30:79:fa:
                    24:ba:1c:5a:54:ff:b0:30:11:d4:aa:92:5a:d7:a6:
                    39:16:45:d7:74:fe:40:9c:d4:cd:f4:74:34:95:ef:
                    4a:99
                Exponent: 65537 (0x10001)
        X509v3 extensions:
            X509v3 Basic Constraints: 
                CA:FALSE
            Netscape Comment: 
                Easy-RSA Generated Certificate
            X509v3 Subject Key Identifier: 
                DC:E2:70:D0:59:39:F5:F5:E0:48:E2:A9:5F:35:D2:98:34:EA:20:FB
            X509v3 Authority Key Identifier: 
                keyid:E3:2B:E4:74:CF:9B:BC:6E:6D:E6:52:1D:11:04:FC:66:1F:25:4A:73
                DirName:/C=US/ST=CA/L=SanFrancisco/O=Fort-Funston/OU=MyOrganizationalUnit/CN=Fort-Funston CA/name=EasyRSA/emailAddress=me@myhost.mydomain
                serial:F9:2F:C6:8B:0E:F1:EB:9E

            X509v3 Extended Key Usage: 
                TLS Web Client Authentication
            X509v3 Key Usage: 
                Digital Signature
            X509v3 Subject Alternative Name: 
                DNS:clt1
    Signature Algorithm: sha256WithRSAEncryption
         ad:80:83:dd:ac:17:9c:da:ca:71:c6:99:13:c7:b5:b7:b4:69:
         a9:fa:0f:dd:fa:b6:4f:a2:19:10:3a:ea:7e:37:e1:a8:29:a0:
         45:76:7e:d2:a8:08:17:f6:4a:ad:9e:31:ad:b1:b4:e5:5a:3f:
         4a:e3:2f:e3:fa:37:0e:3d:04:ca:aa:9a:8d:4e:6f:a2:35:ae:
         48:37:9e:a3:cc:83:21:34:34:2f:e2:71:c6:51:a1:5b:46:ad:
         d5:10:26:ea:e2:4b:18:df:8e:e2:ab:ac:e3:3b:a2:a7:fb:99:
         f2:0e:05:3b:76:38:f0:18:fd:44:93:c1:06:79:1d:d5:c3:a6:
         bf:c1:0a:98:d8:81:9a:66:a9:85:42:c0:fe:dd:ff:ef:21:6e:
         00:9f:68:0a:df:97:c8:5e:f3:d6:c1:fb:06:d6:40:3d:14:59:
         a7:3a:f5:c9:70:fd:b1:93:88:5f:18:45:5d:58:97:60:6a:aa:
         a6:6e:74:de:0e:ba:cc:9b:bf:35:3c:b3:f6:0c:1c:48:7c:5d:
         70:73:db:73:db:28:a9:b8:bc:1a:1e:b8:1c:d5:36:03:f3:22:
         91:d1:e7:8d:eb:36:00:f9:10:b2:16:2b:65:e4:6e:1a:9e:5f:
         cd:f0:fd:9f:39:8f:71:35:de:5c:57:a8:1a:d0:fa:25:12:80:
         fb:9a:da:bb
-----BEGIN CERTIFICATE-----
MIIFXjCCBEagAwIBAgIBBTANBgkqhkiG9w0BAQsFADCBtjELMAkGA1UEBhMCVVMx
CzAJBgNVBAgTAkNBMRUwEwYDVQQHEwxTYW5GcmFuY2lzY28xFTATBgNVBAoTDEZv
cnQtRnVuc3RvbjEdMBsGA1UECxMUTXlPcmdhbml6YXRpb25hbFVuaXQxGDAWBgNV
BAMTD0ZvcnQtRnVuc3RvbiBDQTEQMA4GA1UEKRMHRWFzeVJTQTEhMB8GCSqGSIb3
DQEJARYSbWVAbXlob3N0Lm15ZG9tYWluMB4XDTE2MDgyNjE3MDg1NloXDTI2MDgy
NDE3MDg1NlowgasxCzAJBgNVBAYTAlVTMQswCQYDVQQIEwJDQTEVMBMGA1UEBxMM
U2FuRnJhbmNpc2NvMRUwEwYDVQQKEwxGb3J0LUZ1bnN0b24xHTAbBgNVBAsTFE15
T3JnYW5pemF0aW9uYWxVbml0MQ0wCwYDVQQDEwRjbHQxMRAwDgYDVQQpEwdFYXN5
UlNBMSEwHwYJKoZIhvcNAQkBFhJtZUBteWhvc3QubXlkb21haW4wggEiMA0GCSqG
SIb3DQEBAQUAA4IBDwAwggEKAoIBAQDV8hwjWUGHp2gGfS9fqogWSpFZEX/ZKNHs
1sm8sGuQ7kSUROfUuRFI9/HKnvjOAkSye5A94ZdCsQL+qxwqiYFQgUKff4dBh761
vMCfM4EmgYYkqUxybH/pqHEfqkVKOL3IV8QljEcU0OBgSwfuu1K5ldNmJMRreTaD
r2u4AY9n8oF/Pv7DT3KsBmVDOQ/8X3G8XBL2Nu8nYaAyTNHN4RXiZLX9/VTVY0Wh
lpo4UMW3fg77ltmnp09YWK+hF1D6ZmJDHoo4anxUP41aElzjzJVVJZvuvDNAOlTL
OT5sFzB5+iS6HFpU/7AwEdSqklrXpjkWRdd0/kCc1M30dDSV70qZAgMBAAGjggF+
MIIBejAJBgNVHRMEAjAAMC0GCWCGSAGG+EIBDQQgFh5FYXN5LVJTQSBHZW5lcmF0
ZWQgQ2VydGlmaWNhdGUwHQYDVR0OBBYEFNzicNBZOfX14EjiqV810pg06iD7MIHr
BgNVHSMEgeMwgeCAFOMr5HTPm7xubeZSHREE/GYfJUpzoYG8pIG5MIG2MQswCQYD
VQQGEwJVUzELMAkGA1UECBMCQ0ExFTATBgNVBAcTDFNhbkZyYW5jaXNjbzEVMBMG
A1UEChMMRm9ydC1GdW5zdG9uMR0wGwYDVQQLExRNeU9yZ2FuaXphdGlvbmFsVW5p
dDEYMBYGA1UEAxMPRm9ydC1GdW5zdG9uIENBMRAwDgYDVQQpEwdFYXN5UlNBMSEw
HwYJKoZIhvcNAQkBFhJtZUBteWhvc3QubXlkb21haW6CCQD5L8aLDvHrnjATBgNV
HSUEDDAKBggrBgEFBQcDAjALBgNVHQ8EBAMCB4AwDwYDVR0RBAgwBoIEY2x0MTAN
BgkqhkiG9w0BAQsFAAOCAQEArYCD3awXnNrKccaZE8e1t7RpqfoP3fq2T6IZEDrq
fjfhqCmgRXZ+0qgIF/ZKrZ4xrbG05Vo/SuMv4/o3Dj0EyqqajU5vojWuSDeeo8yD
ITQ0L+JxxlGhW0at1RAm6uJLGN+O4qus4zuip/uZ8g4FO3Y48Bj9RJPBBnkd1cOm
v8EKmNiBmmaphULA/t3/7yFuAJ9oCt+XyF7z1sH7BtZAPRRZpzr1yXD9sZOIXxhF
XViXYGqqpm503g66zJu/NTyz9gwcSHxdcHPbc9soqbi8Gh64HNU2A/MikdHnjes2
APkQshYrZeRuGp5fzfD9nzmPcTXeXFeoGtD6JRKA+5rauw==
-----END CERTIFICATE-----
