Certificate:
    Data:
        Version: 3 (0x2)
        Serial Number: 4 (0x4)
    Signature Algorithm: sha256WithRSAEncryption
        Issuer: C=US, ST=CA, L=SanFrancisco, O=Fort-Funston, OU=MyOrganizationalUnit, CN=Fort-Funston CA/name=EasyRSA/emailAddress=me@myhost.mydomain
        Validity
            Not Before: Aug 26 17:08:44 2016 GMT
            Not After : Aug 24 17:08:44 2026 GMT
        Subject: C=US, ST=CA, L=SanFrancisco, O=Fort-Funston, OU=MyOrganizationalUnit, CN=tsa2/name=EasyRSA/emailAddress=me@myhost.mydomain
        Subject Public Key Info:
            Public Key Algorithm: rsaEncryption
                Public-Key: (2048 bit)
                Modulus:
                    00:9b:34:5c:6b:ac:10:e9:63:50:cd:f5:f1:9e:80:
                    a8:be:ed:4f:21:25:7c:54:67:8f:f0:c1:16:57:ad:
                    1c:c7:14:90:8c:8d:1f:b4:e4:91:3b:fd:2c:44:a1:
                    c3:7d:1d:f5:cb:54:c2:45:a4:e3:e9:07:14:60:60:
                    63:07:d7:6d:92:2b:99:5a:c3:c1:91:87:92:b5:6d:
                    4b:d0:22:cd:62:13:34:9a:d1:c6:8f:e6:f6:df:50:
                    ba:1a:51:80:b8:2e:c9:dc:03:79:3d:97:a9:89:ce:
                    91:68:e4:dc:90:7d:f3:aa:74:2d:48:2b:40:f5:cf:
                    ba:d5:e8:07:d2:34:74:e0:31:c6:e1:0c:df:89:25:
                    c9:49:34:f6:0d:e8:1c:05:54:4c:eb:79:7b:04:bb:
                    e8:1e:f9:c3:dc:f8:d7:6f:d1:c3:77:a5:97:78:45:
                    1c:82:5a:52:a5:26:3e:4b:78:9e:6d:f8:75:3e:40:
                    b9:69:d6:e8:3f:ea:d7:6b:6e:e9:d3:a9:10:a4:92:
                    5e:96:e2:d8:f3:7e:2e:35:f2:81:85:b9:6d:9c:14:
                    02:38:c3:53:0f:a1:84:ef:c3:62:13:7f:10:0f:e4:
                    2e:43:4d:d0:48:06:5b:38:e4:49:e1:35:13:f6:d6:
                    83:1e:1c:f4:10:21:29:45:e3:48:47:01:9c:6a:4d:
                    b6:0b
                Exponent: 65537 (0x10001)
        X509v3 extensions:
            X509v3 Basic Constraints: 
                CA:FALSE
            Netscape Comment: 
                Easy-RSA Generated Certificate
            X509v3 Subject Key Identifier: 
                6E:12:12:1A:40:9F:52:2F:48:9C:B5:EE:DC:BF:20:B7:7A:30:02:DC
            X509v3 Authority Key Identifier: 
                keyid:E3:2B:E4:74:CF:9B:BC:6E:6D:E6:52:1D:11:04:FC:66:1F:25:4A:73
                DirName:/C=US/ST=CA/L=SanFrancisco/O=Fort-Funston/OU=MyOrganizationalUnit/CN=Fort-Funston CA/name=EasyRSA/emailAddress=me@myhost.mydomain
                serial:F9:2F:C6:8B:0E:F1:EB:9E

            X509v3 Extended Key Usage: 
                TLS Web Client Authentication
            X509v3 Key Usage: 
                Digital Signature
            X509v3 Subject Alternative Name: 
                DNS:tsa2
    Signature Algorithm: sha256WithRSAEncryption
         89:6d:03:f4:e6:29:77:ae:b4:82:de:7b:d6:39:56:10:2f:64:
         f7:68:58:6e:3b:cf:9f:96:ab:a3:66:b0:53:80:98:88:c2:70:
         3a:7e:de:d6:3f:69:ff:09:56:22:4f:b3:61:c3:43:ed:73:7f:
         9f:29:10:31:31:ba:d6:78:a2:bc:7d:45:2c:5f:5a:8a:77:62:
         3e:d8:38:fb:41:3c:54:8b:67:29:c5:d7:5a:a9:d3:a9:52:53:
         81:eb:0b:55:9e:4e:f3:73:b5:f9:87:0d:a9:59:c4:2a:66:36:
         47:bc:02:78:12:5b:12:7f:f5:c2:1c:a3:be:d0:bc:3e:72:1e:
         96:f2:a4:16:71:d8:0f:af:76:1d:44:bd:1c:ef:e9:6a:09:00:
         79:61:b1:20:83:61:1f:13:00:69:30:c6:ae:3b:31:a3:6c:db:
         67:52:5d:ef:44:14:eb:53:b4:79:39:62:53:a6:d5:ea:96:ee:
         2c:5f:38:9f:04:32:0c:39:24:e7:1c:04:79:ea:27:90:1f:e2:
         b3:ed:93:a1:92:5c:c6:fa:d5:58:1f:9e:3a:a5:32:01:ce:b8:
         61:f6:fa:bd:ff:37:1c:3f:30:54:8e:69:13:91:1b:95:6c:43:
         c7:23:47:c8:2b:c1:97:00:d4:9b:46:52:ae:b4:dd:da:a6:13:
         a5:6b:07:dc
-----BEGIN CERTIFICATE-----
MIIFXjCCBEagAwIBAgIBBDANBgkqhkiG9w0BAQsFADCBtjELMAkGA1UEBhMCVVMx
CzAJBgNVBAgTAkNBMRUwEwYDVQQHEwxTYW5GcmFuY2lzY28xFTATBgNVBAoTDEZv
cnQtRnVuc3RvbjEdMBsGA1UECxMUTXlPcmdhbml6YXRpb25hbFVuaXQxGDAWBgNV
BAMTD0ZvcnQtRnVuc3RvbiBDQTEQMA4GA1UEKRMHRWFzeVJTQTEhMB8GCSqGSIb3
DQEJARYSbWVAbXlob3N0Lm15ZG9tYWluMB4XDTE2MDgyNjE3MDg0NFoXDTI2MDgy
NDE3MDg0NFowgasxCzAJBgNVBAYTAlVTMQswCQYDVQQIEwJDQTEVMBMGA1UEBxMM
U2FuRnJhbmNpc2NvMRUwEwYDVQQKEwxGb3J0LUZ1bnN0b24xHTAbBgNVBAsTFE15
T3JnYW5pemF0aW9uYWxVbml0MQ0wCwYDVQQDEwR0c2EyMRAwDgYDVQQpEwdFYXN5
UlNBMSEwHwYJKoZIhvcNAQkBFhJtZUBteWhvc3QubXlkb21haW4wggEiMA0GCSqG
SIb3DQEBAQUAA4IBDwAwggEKAoIBAQCbNFxrrBDpY1DN9fGegKi+7U8hJXxUZ4/w
wRZXrRzHFJCMjR+05JE7/SxEocN9HfXLVMJFpOPpBxRgYGMH122SK5law8GRh5K1
bUvQIs1iEzSa0caP5vbfULoaUYC4LsncA3k9l6mJzpFo5NyQffOqdC1IK0D1z7rV
6AfSNHTgMcbhDN+JJclJNPYN6BwFVEzreXsEu+ge+cPc+Ndv0cN3pZd4RRyCWlKl
Jj5LeJ5t+HU+QLlp1ug/6tdrbunTqRCkkl6W4tjzfi418oGFuW2cFAI4w1MPoYTv
w2ITfxAP5C5DTdBIBls45EnhNRP21oMeHPQQISlF40hHAZxqTbYLAgMBAAGjggF+
MIIBejAJBgNVHRMEAjAAMC0GCWCGSAGG+EIBDQQgFh5FYXN5LVJTQSBHZW5lcmF0
ZWQgQ2VydGlmaWNhdGUwHQYDVR0OBBYEFG4SEhpAn1IvSJy17ty/ILd6MALcMIHr
BgNVHSMEgeMwgeCAFOMr5HTPm7xubeZSHREE/GYfJUpzoYG8pIG5MIG2MQswCQYD
VQQGEwJVUzELMAkGA1UECBMCQ0ExFTATBgNVBAcTDFNhbkZyYW5jaXNjbzEVMBMG
A1UEChMMRm9ydC1GdW5zdG9uMR0wGwYDVQQLExRNeU9yZ2FuaXphdGlvbmFsVW5p
dDEYMBYGA1UEAxMPRm9ydC1GdW5zdG9uIENBMRAwDgYDVQQpEwdFYXN5UlNBMSEw
HwYJKoZIhvcNAQkBFhJtZUBteWhvc3QubXlkb21haW6CCQD5L8aLDvHrnjATBgNV
HSUEDDAKBggrBgEFBQcDAjALBgNVHQ8EBAMCB4AwDwYDVR0RBAgwBoIEdHNhMjAN
BgkqhkiG9w0BAQsFAAOCAQEAiW0D9OYpd660gt571jlWEC9k92hYbjvPn5aro2aw
U4CYiMJwOn7e1j9p/wlWIk+zYcND7XN/nykQMTG61niivH1FLF9aindiPtg4+0E8
VItnKcXXWqnTqVJTgesLVZ5O83O1+YcNqVnEKmY2R7wCeBJbEn/1whyjvtC8PnIe
lvKkFnHYD692HUS9HO/pagkAeWGxIINhHxMAaTDGrjsxo2zbZ1Jd70QU61O0eTli
U6bV6pbuLF84nwQyDDkk5xwEeeonkB/is+2ToZJcxvrVWB+eOqUyAc64Yfb6vf83
HD8wVI5pE5EblWxDxyNHyCvBlwDUm0ZSrrTd2qYTpWsH3A==
-----END CERTIFICATE-----
